target datalayout = "e-m:e-p270:32:32-p271:32:32-p272:64:64-i64:64-i128:128-f80:128-n8:16:32:64-S128"
target triple = "x86_64-pc-linux-gnu"

%struct.SubscriptingRefState = type { i8, ptr, i32, ptr, ptr, ptr, i32, ptr, ptr, ptr, i64, i8, i64, i8 }
%struct.ArraySubWorkspace = type { i32, i16, i16, i8, i8, [6 x i32], [6 x i32] }
%struct.ExprEvalStep = type { i64, ptr, ptr, %union.anon }
%union.anon = type { %struct.anon.23 }
%struct.anon.23 = type { ptr, ptr, i32, i32, ptr, ptr }
%struct.anon.27 = type { ptr, ptr }

; Function Attrs: nounwind uwtable
define internal void @array_subscript_fetch_old_slice(ptr noundef %0, ptr noundef %1, ptr noundef %2) #0 {
  %4 = alloca ptr, align 8
  %5 = alloca ptr, align 8
  %6 = alloca ptr, align 8
  %7 = alloca ptr, align 8
  %8 = alloca ptr, align 8
  store ptr %0, ptr %4, align 8
  store ptr %1, ptr %5, align 8
  store ptr %2, ptr %6, align 8
  call void @llvm.lifetime.start.p0(i64 8, ptr %7) #6
  %9 = load ptr, ptr %5, align 8
  %10 = getelementptr inbounds nuw %struct.ExprEvalStep, ptr %9, i32 0, i32 3
  %11 = getelementptr inbounds nuw %struct.anon.27, ptr %10, i32 0, i32 1
  %12 = load ptr, ptr %11, align 8
  store ptr %12, ptr %7, align 8
  call void @llvm.lifetime.start.p0(i64 8, ptr %8) #6
  %13 = load ptr, ptr %7, align 8
  %14 = getelementptr inbounds nuw %struct.SubscriptingRefState, ptr %13, i32 0, i32 1
  %15 = load ptr, ptr %14, align 8
  store ptr %15, ptr %8, align 8
  %16 = load ptr, ptr %5, align 8
  %17 = getelementptr inbounds nuw %struct.ExprEvalStep, ptr %16, i32 0, i32 2
  %18 = load ptr, ptr %17, align 8
  %19 = load i8, ptr %18, align 1, !range !4, !noundef !5
  %20 = trunc i8 %19 to i1
  br i1 %20, label %21, label %26

21:                                               ; preds = %3
  %22 = load ptr, ptr %7, align 8
  %23 = getelementptr inbounds nuw %struct.SubscriptingRefState, ptr %22, i32 0, i32 12
  store i64 0, ptr %23, align 8
  %24 = load ptr, ptr %7, align 8
  %25 = getelementptr inbounds nuw %struct.SubscriptingRefState, ptr %24, i32 0, i32 13
  store i8 1, ptr %25, align 8
  br label %66

26:                                               ; preds = %3
  %27 = load ptr, ptr %5, align 8
  %28 = getelementptr inbounds nuw %struct.ExprEvalStep, ptr %27, i32 0, i32 1
  %29 = load ptr, ptr %28, align 8
  %30 = load i64, ptr %29, align 8
  %31 = load ptr, ptr %7, align 8
  %32 = getelementptr inbounds nuw %struct.SubscriptingRefState, ptr %31, i32 0, i32 2
  %33 = load i32, ptr %32, align 8
  %34 = load ptr, ptr %8, align 8
  %35 = getelementptr inbounds nuw %struct.ArraySubWorkspace, ptr %34, i32 0, i32 5
  %36 = getelementptr inbounds [6 x i32], ptr %35, i64 0, i64 0
  %37 = load ptr, ptr %8, align 8
  %38 = getelementptr inbounds nuw %struct.ArraySubWorkspace, ptr %37, i32 0, i32 6
  %39 = getelementptr inbounds [6 x i32], ptr %38, i64 0, i64 0
  %40 = load ptr, ptr %7, align 8
  %41 = getelementptr inbounds nuw %struct.SubscriptingRefState, ptr %40, i32 0, i32 3
  %42 = load ptr, ptr %41, align 8
  %43 = load ptr, ptr %7, align 8
  %44 = getelementptr inbounds nuw %struct.SubscriptingRefState, ptr %43, i32 0, i32 7
  %45 = load ptr, ptr %44, align 8
  %46 = load ptr, ptr %8, align 8
  %47 = getelementptr inbounds nuw %struct.ArraySubWorkspace, ptr %46, i32 0, i32 1
  %48 = load i16, ptr %47, align 4
  %49 = sext i16 %48 to i32
  %50 = load ptr, ptr %8, align 8
  %51 = getelementptr inbounds nuw %struct.ArraySubWorkspace, ptr %50, i32 0, i32 2
  %52 = load i16, ptr %51, align 2
  %53 = sext i16 %52 to i32
  %54 = load ptr, ptr %8, align 8
  %55 = getelementptr inbounds nuw %struct.ArraySubWorkspace, ptr %54, i32 0, i32 3
  %56 = load i8, ptr %55, align 4, !range !4, !noundef !5
  %57 = trunc i8 %56 to i1
  %58 = load ptr, ptr %8, align 8
  %59 = getelementptr inbounds nuw %struct.ArraySubWorkspace, ptr %58, i32 0, i32 4
  %60 = load i8, ptr %59, align 1
  %61 = call i64 @array_get_slice(i64 noundef %30, i32 noundef %33, ptr noundef %36, ptr noundef %39, ptr noundef %42, ptr noundef %45, i32 noundef %49, i32 noundef %53, i1 noundef zeroext %57, i8 noundef signext %60)
  %62 = load ptr, ptr %7, align 8
  %63 = getelementptr inbounds nuw %struct.SubscriptingRefState, ptr %62, i32 0, i32 12
  store i64 %61, ptr %63, align 8
  %64 = load ptr, ptr %7, align 8
  %65 = getelementptr inbounds nuw %struct.SubscriptingRefState, ptr %64, i32 0, i32 13
  store i8 0, ptr %65, align 8
  br label %66

66:                                               ; preds = %26, %21
  call void @llvm.lifetime.end.p0(i64 8, ptr %8) #6
  call void @llvm.lifetime.end.p0(i64 8, ptr %7) #6
  ret void
}