; Function Attrs: nounwind uwtable
define internal void @array_subscript_fetch_old_slice(ptr readnone captures(none) %0, ptr noundef readonly captures(none) %1, ptr readnone captures(none) %2) #1 {
  %4 = getelementptr inbounds nuw i8, ptr %1, i64 32
  %5 = load ptr, ptr %4, align 8
  %6 = getelementptr inbounds nuw i8, ptr %1, i64 16
  %7 = load ptr, ptr %6, align 8
  %8 = load i8, ptr %7, align 1, !range !4, !noundef !5
  %9 = trunc nuw i8 %8 to i1
  br i1 %9, label %36, label %10

10:                                               ; preds = %3
  %11 = getelementptr inbounds nuw i8, ptr %5, i64 8
  %12 = load ptr, ptr %11, align 8
  %13 = getelementptr inbounds nuw i8, ptr %1, i64 8
  %14 = load ptr, ptr %13, align 8
  %15 = load i64, ptr %14, align 8
  %16 = getelementptr inbounds nuw i8, ptr %5, i64 16
  %17 = load i32, ptr %16, align 8
  %18 = getelementptr inbounds nuw i8, ptr %12, i64 12
  %19 = getelementptr inbounds nuw i8, ptr %12, i64 36
  %20 = getelementptr inbounds nuw i8, ptr %5, i64 24
  %21 = load ptr, ptr %20, align 8
  %22 = getelementptr inbounds nuw i8, ptr %5, i64 56
  %23 = load ptr, ptr %22, align 8
  %24 = getelementptr inbounds nuw i8, ptr %12, i64 4
  %25 = load i16, ptr %24, align 4
  %26 = sext i16 %25 to i32
  %27 = getelementptr inbounds nuw i8, ptr %12, i64 6
  %28 = load i16, ptr %27, align 2
  %29 = sext i16 %28 to i32
  %30 = getelementptr inbounds nuw i8, ptr %12, i64 8
  %31 = load i8, ptr %30, align 4, !range !4, !noundef !5
  %32 = trunc nuw i8 %31 to i1
  %33 = getelementptr inbounds nuw i8, ptr %12, i64 9
  %34 = load i8, ptr %33, align 1
  %35 = tail call i64 @array_get_slice(i64 noundef %15, i32 noundef %17, ptr noundef nonnull %18, ptr noundef nonnull %19, ptr noundef %21, ptr noundef %23, i32 noundef %26, i32 noundef %29, i1 noundef zeroext %32, i8 noundef signext %34) #7
  br label %36

36:                                               ; preds = %3, %10
  %.sink17 = phi i64 [ %35, %10 ], [ 0, %3 ]
  %.sink = phi i8 [ 0, %10 ], [ 1, %3 ]
  %37 = getelementptr inbounds nuw i8, ptr %5, i64 96
  store i64 %.sink17, ptr %37, align 8
  %38 = getelementptr inbounds nuw i8, ptr %5, i64 104
  store i8 %.sink, ptr %38, align 8
  ret void
}